; ModuleID = '7/117.c'
source_filename = "7/117.c"
target datalayout = "e-m:e-p270:32:32-p271:32:32-p272:64:64-i64:64-f80:128-n8:16:32:64-S128"
target triple = "x86_64-pc-linux-gnu"

@.str = private unnamed_addr constant [7 x i8] c"%s%s%s\00", align 1
@.str.1 = private unnamed_addr constant [3 x i8] c"%s\00", align 1

; Function Attrs: noinline nounwind uwtable
define dso_local i32 @main() #0 {
  %1 = alloca i32, align 4
  %2 = alloca [256 x i8], align 16
  %3 = alloca [256 x i8], align 16
  %4 = alloca [256 x i8], align 16
  %5 = alloca i32, align 4
  %6 = alloca i32, align 4
  %7 = alloca i32, align 4
  %8 = alloca i32, align 4
  %9 = alloca i32, align 4
  %10 = alloca i32, align 4
  store i32 0, i32* %1, align 4
  %11 = getelementptr inbounds [256 x i8], [256 x i8]* %2, i64 0, i64 0
  %12 = getelementptr inbounds [256 x i8], [256 x i8]* %3, i64 0, i64 0
  %13 = getelementptr inbounds [256 x i8], [256 x i8]* %4, i64 0, i64 0
  %14 = call i32 (i8*, ...) @__isoc99_scanf(i8* getelementptr inbounds ([7 x i8], [7 x i8]* @.str, i64 0, i64 0), i8* %11, i8* %12, i8* %13)
  store i32 0, i32* %8, align 4
  store i32 0, i32* %9, align 4
  br label %15

15:                                               ; preds = %79, %0
  %16 = load i32, i32* %8, align 4
  store i32 %16, i32* %7, align 4
  br label %17

17:                                               ; preds = %37, %15
  %18 = load i32, i32* %7, align 4
  %19 = sext i32 %18 to i64
  %20 = getelementptr inbounds [256 x i8], [256 x i8]* %2, i64 0, i64 %19
  %21 = load i8, i8* %20, align 1
  %22 = sext i8 %21 to i32
  %23 = getelementptr inbounds [256 x i8], [256 x i8]* %3, i64 0, i64 0
  %24 = load i8, i8* %23, align 16
  %25 = sext i8 %24 to i32
  %26 = icmp eq i32 %22, %25
  br i1 %26, label %27, label %28

27:                                               ; preds = %17
  store i32 1, i32* %9, align 4
  br label %40

28:                                               ; preds = %17
  %29 = load i32, i32* %7, align 4
  %30 = sext i32 %29 to i64
  %31 = getelementptr inbounds [256 x i8], [256 x i8]* %2, i64 0, i64 %30
  %32 = load i8, i8* %31, align 1
  %33 = sext i8 %32 to i32
  %34 = icmp eq i32 %33, 0
  br i1 %34, label %35, label %36

35:                                               ; preds = %28
  store i32 2, i32* %9, align 4
  br label %40

36:                                               ; preds = %28
  br label %37

37:                                               ; preds = %36
  %38 = load i32, i32* %7, align 4
  %39 = add nsw i32 %38, 1
  store i32 %39, i32* %7, align 4
  br label %17

40:                                               ; preds = %35, %27
  %41 = load i32, i32* %9, align 4
  %42 = icmp eq i32 %41, 2
  br i1 %42, label %43, label %44

43:                                               ; preds = %40
  br label %80

44:                                               ; preds = %40
  %45 = load i32, i32* %7, align 4
  %46 = add nsw i32 %45, 1
  store i32 %46, i32* %8, align 4
  store i32 1, i32* %6, align 4
  br label %47

47:                                               ; preds = %71, %44
  %48 = load i32, i32* %6, align 4
  %49 = sext i32 %48 to i64
  %50 = getelementptr inbounds [256 x i8], [256 x i8]* %3, i64 0, i64 %49
  %51 = load i8, i8* %50, align 1
  %52 = sext i8 %51 to i32
  %53 = icmp eq i32 %52, 0
  br i1 %53, label %54, label %55

54:                                               ; preds = %47
  store i32 3, i32* %9, align 4
  br label %74

55:                                               ; preds = %47
  %56 = load i32, i32* %7, align 4
  %57 = load i32, i32* %6, align 4
  %58 = add nsw i32 %56, %57
  %59 = sext i32 %58 to i64
  %60 = getelementptr inbounds [256 x i8], [256 x i8]* %2, i64 0, i64 %59
  %61 = load i8, i8* %60, align 1
  %62 = sext i8 %61 to i32
  %63 = load i32, i32* %6, align 4
  %64 = sext i32 %63 to i64
  %65 = getelementptr inbounds [256 x i8], [256 x i8]* %3, i64 0, i64 %64
  %66 = load i8, i8* %65, align 1
  %67 = sext i8 %66 to i32
  %68 = icmp ne i32 %62, %67
  br i1 %68, label %69, label %70

69:                                               ; preds = %55
  store i32 4, i32* %9, align 4
  br label %74

70:                                               ; preds = %55
  br label %71

71:                                               ; preds = %70
  %72 = load i32, i32* %6, align 4
  %73 = add nsw i32 %72, 1
  store i32 %73, i32* %6, align 4
  br label %47

74:                                               ; preds = %69, %54
  %75 = load i32, i32* %9, align 4
  %76 = icmp eq i32 %75, 3
  br i1 %76, label %77, label %78

77:                                               ; preds = %74
  br label %80

78:                                               ; preds = %74
  br label %79

79:                                               ; preds = %78
  br label %15

80:                                               ; preds = %77, %43
  %81 = load i32, i32* %9, align 4
  %82 = icmp eq i32 %81, 2
  br i1 %82, label %83, label %86

83:                                               ; preds = %80
  %84 = getelementptr inbounds [256 x i8], [256 x i8]* %2, i64 0, i64 0
  %85 = call i32 (i8*, ...) @printf(i8* getelementptr inbounds ([3 x i8], [3 x i8]* @.str.1, i64 0, i64 0), i8* %84)
  br label %166

86:                                               ; preds = %80
  store i32 0, i32* %5, align 4
  br label %87

87:                                               ; preds = %115, %86
  %88 = load i32, i32* %7, align 4
  %89 = load i32, i32* %5, align 4
  %90 = add nsw i32 %88, %89
  %91 = sext i32 %90 to i64
  %92 = getelementptr inbounds [256 x i8], [256 x i8]* %3, i64 0, i64 0
  %93 = call i64 @strlen(i8* %92) #3
  %94 = add i64 %91, %93
  %95 = getelementptr inbounds [256 x i8], [256 x i8]* %2, i64 0, i64 %94
  %96 = load i8, i8* %95, align 1
  %97 = load i32, i32* %7, align 4
  %98 = load i32, i32* %5, align 4
  %99 = add nsw i32 %97, %98
  %100 = sext i32 %99 to i64
  %101 = getelementptr inbounds [256 x i8], [256 x i8]* %2, i64 0, i64 %100
  store i8 %96, i8* %101, align 1
  %102 = load i32, i32* %7, align 4
  %103 = load i32, i32* %5, align 4
  %104 = add nsw i32 %102, %103
  %105 = sext i32 %104 to i64
  %106 = getelementptr inbounds [256 x i8], [256 x i8]* %3, i64 0, i64 0
  %107 = call i64 @strlen(i8* %106) #3
  %108 = add i64 %105, %107
  %109 = getelementptr inbounds [256 x i8], [256 x i8]* %2, i64 0, i64 %108
  %110 = load i8, i8* %109, align 1
  %111 = sext i8 %110 to i32
  %112 = icmp eq i32 %111, 0
  br i1 %112, label %113, label %114

113:                                              ; preds = %87
  br label %118

114:                                              ; preds = %87
  br label %115

115:                                              ; preds = %114
  %116 = load i32, i32* %5, align 4
  %117 = add nsw i32 %116, 1
  store i32 %117, i32* %5, align 4
  br label %87

118:                                              ; preds = %113
  %119 = getelementptr inbounds [256 x i8], [256 x i8]* %4, i64 0, i64 0
  %120 = call i64 @strlen(i8* %119) #3
  %121 = trunc i64 %120 to i32
  store i32 %121, i32* %5, align 4
  br label %122

122:                                              ; preds = %160, %118
  %123 = load i32, i32* %5, align 4
  %124 = icmp sgt i32 %123, 0
  br i1 %124, label %125, label %163

125:                                              ; preds = %122
  %126 = getelementptr inbounds [256 x i8], [256 x i8]* %2, i64 0, i64 0
  %127 = call i64 @strlen(i8* %126) #3
  %128 = trunc i64 %127 to i32
  store i32 %128, i32* %10, align 4
  store i32 0, i32* %6, align 4
  br label %129

129:                                              ; preds = %148, %125
  %130 = load i32, i32* %10, align 4
  %131 = load i32, i32* %6, align 4
  %132 = sub nsw i32 %130, %131
  %133 = load i32, i32* %7, align 4
  %134 = icmp sge i32 %132, %133
  br i1 %134, label %135, label %151

135:                                              ; preds = %129
  %136 = load i32, i32* %10, align 4
  %137 = load i32, i32* %6, align 4
  %138 = sub nsw i32 %136, %137
  %139 = sext i32 %138 to i64
  %140 = getelementptr inbounds [256 x i8], [256 x i8]* %2, i64 0, i64 %139
  %141 = load i8, i8* %140, align 1
  %142 = load i32, i32* %10, align 4
  %143 = add nsw i32 %142, 1
  %144 = load i32, i32* %6, align 4
  %145 = sub nsw i32 %143, %144
  %146 = sext i32 %145 to i64
  %147 = getelementptr inbounds [256 x i8], [256 x i8]* %2, i64 0, i64 %146
  store i8 %141, i8* %147, align 1
  br label %148

148:                                              ; preds = %135
  %149 = load i32, i32* %6, align 4
  %150 = add nsw i32 %149, 1
  store i32 %150, i32* %6, align 4
  br label %129

151:                                              ; preds = %129
  %152 = load i32, i32* %5, align 4
  %153 = sub nsw i32 %152, 1
  %154 = sext i32 %153 to i64
  %155 = getelementptr inbounds [256 x i8], [256 x i8]* %4, i64 0, i64 %154
  %156 = load i8, i8* %155, align 1
  %157 = load i32, i32* %7, align 4
  %158 = sext i32 %157 to i64
  %159 = getelementptr inbounds [256 x i8], [256 x i8]* %2, i64 0, i64 %158
  store i8 %156, i8* %159, align 1
  br label %160

160:                                              ; preds = %151
  %161 = load i32, i32* %5, align 4
  %162 = add nsw i32 %161, -1
  store i32 %162, i32* %5, align 4
  br label %122

163:                                              ; preds = %122
  %164 = getelementptr inbounds [256 x i8], [256 x i8]* %2, i64 0, i64 0
  %165 = call i32 (i8*, ...) @printf(i8* getelementptr inbounds ([3 x i8], [3 x i8]* @.str.1, i64 0, i64 0), i8* %164)
  br label %166

166:                                              ; preds = %163, %83
  ret i32 0
}

declare dso_local i32 @__isoc99_scanf(i8*, ...) #1

declare dso_local i32 @printf(i8*, ...) #1

; Function Attrs: nounwind readonly
declare dso_local i64 @strlen(i8*) #2


!llvm.module.flags = !{!0}
!llvm.ident = !{!1}

!0 = !{i32 1, !"wchar_size", i32 4}
!1 = !{!"clang version 10.0.0-4ubuntu1 "}
